target datalayout = "e-m:e-p270:32:32-p271:32:32-p272:64:64-i64:64-i128:128-f80:128-n8:16:32:64-S128"
target triple = "x86_64-pc-linux-gnu"

%class.GCIdMark = type { i32 }
%class.ShenandoahGCSession = type { ptr, ptr, ptr, %class.TraceMemoryManagerStats }
%class.TraceMemoryManagerStats = type { ptr, i32, ptr, i8, i8, i8, i8, i8, i8, i8, i8 }
%class.ShenandoahGC = type { ptr }
%class.ShenandoahFullGC = type { %class.ShenandoahGC, ptr, ptr }

; Function Attrs: mustprogress nounwind uwtable
define hidden void @_ZN23ShenandoahControlThread22service_stw_full_cycleEN7GCCause5CauseE(ptr noundef nonnull align 8 dereferenceable(1868) %0, i32 noundef %1) #1 align 2 {
  %3 = alloca ptr, align 8
  %4 = alloca i32, align 4
  %5 = alloca %class.GCIdMark, align 4
  %6 = alloca %class.ShenandoahGCSession, align 8
  %7 = alloca %class.ShenandoahFullGC, align 8
  store ptr %0, ptr %3, align 8
  store i32 %1, ptr %4, align 4
  call void @_ZN8GCIdMarkC1Ev(ptr noundef nonnull align 4 dereferenceable(4) %5)
  %8 = load i32, ptr %4, align 4
  call void @_ZN19ShenandoahGCSessionC1EN7GCCause5CauseE(ptr noundef nonnull align 8 dereferenceable(56) %6, i32 noundef %8)
  call void @_ZN16ShenandoahFullGCC1Ev(ptr noundef nonnull align 8 dereferenceable(24) %7)
  %9 = load i32, ptr %4, align 4
  %10 = call noundef zeroext i1 @_ZN16ShenandoahFullGC7collectEN7GCCause5CauseE(ptr noundef nonnull align 8 dereferenceable(24) %7, i32 noundef %9)
  call void @_ZN16ShenandoahFullGCD1Ev(ptr noundef nonnull align 8 dereferenceable(24) %7) #10
  call void @_ZN19ShenandoahGCSessionD1Ev(ptr noundef nonnull align 8 dereferenceable(56) %6) #10
  call void @_ZN8GCIdMarkD1Ev(ptr noundef nonnull align 4 dereferenceable(4) %5) #10
  ret void
}