; Function Attrs: mustprogress nounwind uwtable
define hidden void @_ZN23ShenandoahControlThread22service_stw_full_cycleEN7GCCause5CauseE(ptr nocapture noundef nonnull readnone align 8 dereferenceable(1868) %0, i32 noundef %1) local_unnamed_addr #0 align 2 {
  %3 = alloca %class.GCIdMark, align 4
  %4 = alloca %class.ShenandoahGCSession, align 8
  %5 = alloca %class.ShenandoahFullGC, align 8
  call void @_ZN8GCIdMarkC1Ev(ptr noundef nonnull align 4 dereferenceable(4) %3) #10
  call void @_ZN19ShenandoahGCSessionC1EN7GCCause5CauseE(ptr noundef nonnull align 8 dereferenceable(56) %4, i32 noundef %1) #10
  call void @_ZN16ShenandoahFullGCC1Ev(ptr noundef nonnull align 8 dereferenceable(24) %5) #10
  %6 = call noundef zeroext i1 @_ZN16ShenandoahFullGC7collectEN7GCCause5CauseE(ptr noundef nonnull align 8 dereferenceable(24) %5, i32 noundef %1) #10
  call void @_ZN16ShenandoahFullGCD1Ev(ptr noundef nonnull align 8 dereferenceable(24) %5) #10
  call void @_ZN19ShenandoahGCSessionD1Ev(ptr noundef nonnull align 8 dereferenceable(56) %4) #10
  call void @_ZN8GCIdMarkD1Ev(ptr noundef nonnull align 4 dereferenceable(4) %3) #10
  ret void
}